; Function Attrs: mustprogress uwtable
define dso_local void @_Z15tryCatchExamplePKcPKN7Imf_3_44RgbaEii(ptr noundef %0, ptr noundef %1, i32 noundef %2, i32 noundef %3) local_unnamed_addr #8 personality ptr @__gxx_personality_v0 {
  invoke void @_Z10writeRgba1PKcPKN7Imf_3_44RgbaEii(ptr noundef %0, ptr noundef %1, i32 noundef %2, i32 noundef %3)
          to label %20 unwind label %5

5:                                                ; preds = %4
  %6 = landingpad { ptr, i32 }
          catch ptr @_ZTISt9exception
  %7 = extractvalue { ptr, i32 } %6, 1
  %8 = tail call i32 @llvm.eh.typeid.for.p0(ptr nonnull @_ZTISt9exception) #36
  %9 = icmp eq i32 %7, %8
  br i1 %9, label %10, label %23

10:                                               ; preds = %5
  %11 = extractvalue { ptr, i32 } %6, 0
  %12 = tail call ptr @__cxa_begin_catch(ptr %11) #36
  %13 = load ptr, ptr %12, align 8, !tbaa !15
  %14 = getelementptr inbounds nuw i8, ptr %13, i64 16
  %15 = load ptr, ptr %14, align 8
  %16 = tail call noundef ptr %15(ptr noundef nonnull align 8 dereferenceable(8) %12) #36
  %17 = invoke noundef nonnull align 8 dereferenceable(8) ptr @_ZStlsISt11char_traitsIcEERSt13basic_ostreamIcT_ES5_PKc(ptr noundef nonnull align 8 dereferenceable(8) @_ZSt4cerr, ptr noundef %16)
          to label %18 unwind label %21

18:                                               ; preds = %10
  %19 = invoke noundef nonnull align 8 dereferenceable(8) ptr @_ZSt4endlIcSt11char_traitsIcEERSt13basic_ostreamIT_T0_ES6_(ptr noundef nonnull align 8 dereferenceable(8) %17)
          to label %_ZNSolsEPFRSoS_E.exit unwind label %21

_ZNSolsEPFRSoS_E.exit:                            ; preds = %18
  tail call void @__cxa_end_catch()
  br label %20

20:                                               ; preds = %4, %_ZNSolsEPFRSoS_E.exit
  ret void

21:                                               ; preds = %18, %10
  %22 = landingpad { ptr, i32 }
          cleanup
  invoke void @__cxa_end_catch()
          to label %23 unwind label %24

23:                                               ; preds = %21, %5
  %.merged = phi { ptr, i32 } [ %6, %5 ], [ %22, %21 ]
  resume { ptr, i32 } %.merged

24:                                               ; preds = %21
  %25 = landingpad { ptr, i32 }
          catch ptr null
  %26 = extractvalue { ptr, i32 } %25, 0
  tail call void @__clang_call_terminate(ptr %26) #40
  unreachable
}